(dp1
S'session'
p2
(dp3
S'username'
p4
Vbrandon@9bplus.com
p5
sS'logged_in'
p6
I01
sS'session.cookie_expires'
p7
I2592000
sS'_accessed_time'
p8
F1392913272.044682
sS'_creation_time'
p9
F1392912584.6734669
ss.